; Function Attrs: mustprogress nounwind uwtable
define hidden void @_ZN12LinkResolver25check_klass_accessibilityEP5KlassS1_P10JavaThread(ptr noundef %0, ptr noundef %1, ptr noundef %2) local_unnamed_addr #0 align 2 {
  %4 = getelementptr inbounds i8, ptr %1, i64 12
  %5 = load i32, ptr %4, align 4
  %6 = icmp eq i32 %5, 6
  br i1 %6, label %7, label %10

7:                                                ; preds = %3
  %8 = getelementptr inbounds i8, ptr %1, i64 224
  %9 = load ptr, ptr %8, align 8
  %.phi.trans.insert = getelementptr inbounds i8, ptr %9, i64 12
  %.pre = load i32, ptr %.phi.trans.insert, align 4
  br label %10

10:                                               ; preds = %7, %3
  %11 = phi i32 [ %.pre, %7 ], [ %5, %3 ]
  %.0 = phi ptr [ %9, %7 ], [ %1, %3 ]
  %12 = icmp slt i32 %11, 5
  br i1 %12, label %13, label %_ZN12ResourceMarkD2Ev.exit

13:                                               ; preds = %10
  %14 = tail call noundef i32 @_ZN10Reflection19verify_class_accessEPK5KlassPK13InstanceKlassb(ptr noundef %0, ptr noundef nonnull %.0, i1 noundef zeroext true) #10
  %.not = icmp eq i32 %14, 0
  br i1 %.not, label %_ZN12ResourceMarkD2Ev.exit, label %15

15:                                               ; preds = %13
  %16 = getelementptr inbounds i8, ptr %2, i64 800
  %17 = load ptr, ptr %16, align 8
  %18 = getelementptr inbounds i8, ptr %17, i64 24
  %19 = load ptr, ptr %18, align 8
  %20 = getelementptr inbounds i8, ptr %17, i64 32
  %21 = load ptr, ptr %20, align 8
  %22 = getelementptr inbounds i8, ptr %17, i64 40
  %23 = load ptr, ptr %22, align 8
  %24 = getelementptr inbounds i8, ptr %17, i64 8
  %25 = load i64, ptr %24, align 8
  %26 = tail call noundef ptr @_ZN10Reflection23verify_class_access_msgEPK5KlassPK13InstanceKlassNS_24VerifyClassAccessResultsE(ptr noundef %0, ptr noundef nonnull %.0, i32 noundef %14) #10
  %27 = load ptr, ptr %.0, align 8
  %28 = getelementptr inbounds i8, ptr %27, i64 136
  %29 = load ptr, ptr %28, align 8
  %30 = tail call noundef ptr %29(ptr noundef nonnull align 8 dereferenceable(196) %.0) #10
  %31 = load ptr, ptr %0, align 8
  %32 = getelementptr inbounds i8, ptr %31, i64 136
  %33 = load ptr, ptr %32, align 8
  %34 = tail call noundef ptr %33(ptr noundef nonnull align 8 dereferenceable(196) %0) #10
  %35 = icmp eq ptr %26, null
  br i1 %35, label %36, label %49

36:                                               ; preds = %15
  %37 = icmp eq ptr %30, %34
  %38 = load ptr, ptr getelementptr inbounds (i8, ptr @_ZN6Symbol11_vm_symbolsE, i64 1312), align 8
  %39 = tail call noundef ptr @_ZNK5Klass13external_nameEv(ptr noundef nonnull align 8 dereferenceable(196) %.0) #10
  %40 = tail call noundef ptr @_ZNK5Klass13external_nameEv(ptr noundef nonnull align 8 dereferenceable(196) %0) #10
  br i1 %37, label %.thread, label %42

.thread:                                          ; preds = %36
  %41 = tail call noundef ptr @_ZNK5Klass25joint_in_module_of_loaderEPKS_b(ptr noundef nonnull align 8 dereferenceable(196) %.0, ptr noundef nonnull %0, i1 noundef zeroext false) #10
  br label %45

42:                                               ; preds = %36
  %43 = tail call noundef ptr @_ZNK5Klass25class_in_module_of_loaderEbb(ptr noundef nonnull align 8 dereferenceable(196) %.0, i1 noundef zeroext false, i1 noundef zeroext false) #10
  %44 = tail call noundef ptr @_ZNK5Klass25class_in_module_of_loaderEbb(ptr noundef nonnull align 8 dereferenceable(196) %0, i1 noundef zeroext false, i1 noundef zeroext false) #10
  br label %45

45:                                               ; preds = %.thread, %42
  %46 = phi ptr [ %43, %42 ], [ %41, %.thread ]
  %47 = phi ptr [ @.str.8, %42 ], [ @.str.7, %.thread ]
  %48 = phi ptr [ %44, %42 ], [ @.str.7, %.thread ]
  tail call void (ptr, ptr, i32, ptr, ptr, ...) @_ZN10Exceptions6fthrowEP10JavaThreadPKciP6SymbolS3_z(ptr noundef nonnull %2, ptr noundef nonnull @.str, i32 noundef 329, ptr noundef %38, ptr noundef nonnull @.str.6, ptr noundef %39, ptr noundef %40, ptr noundef %46, ptr noundef nonnull %47, ptr noundef %48) #10
  br label %51

49:                                               ; preds = %15
  %50 = load ptr, ptr getelementptr inbounds (i8, ptr @_ZN6Symbol11_vm_symbolsE, i64 1312), align 8
  tail call void (ptr, ptr, i32, ptr, ptr, ...) @_ZN10Exceptions6fthrowEP10JavaThreadPKciP6SymbolS3_z(ptr noundef nonnull %2, ptr noundef nonnull @.str, i32 noundef 340, ptr noundef %50, ptr noundef nonnull @.str.9, ptr noundef nonnull %26) #10
  br label %51

51:                                               ; preds = %49, %45
  %52 = load ptr, ptr %19, align 8
  %.not.i.i.i.i = icmp eq ptr %52, null
  br i1 %.not.i.i.i.i, label %54, label %53

53:                                               ; preds = %51
  tail call void @_ZN5Arena17set_size_in_bytesEm(ptr noundef nonnull align 8 dereferenceable(48) %17, i64 noundef %25) #10
  tail call void @_ZN5Chunk9next_chopEPS_(ptr noundef nonnull %19) #10
  br label %54

54:                                               ; preds = %53, %51
  %55 = load ptr, ptr %20, align 8
  %.not8.i.i.i.i = icmp eq ptr %55, %21
  br i1 %.not8.i.i.i.i, label %_ZN12ResourceMarkD2Ev.exit, label %56

56:                                               ; preds = %54
  store ptr %19, ptr %18, align 8
  store ptr %21, ptr %20, align 8
  store ptr %23, ptr %22, align 8
  br label %_ZN12ResourceMarkD2Ev.exit

_ZN12ResourceMarkD2Ev.exit:                       ; preds = %56, %54, %10, %13
  ret void
}